#include <math.h>
#include <stdio.h>
#include <stdlib.h>
#include <string.h>

main()
{
   int i,chang;
   char a[5]={'\0'},b[5]={'\0'};
   scanf("%s",a);
   chang=strlen(a);
   for(i=0;i<chang;i++)
   {
   	b[i]=a[chang-i-1];
   }
   for(i=0;i<chang;i++)
   printf("%c",b[i]);
}